target datalayout = "e-m:e-p270:32:32-p271:32:32-p272:64:64-i64:64-i128:128-f80:128-n8:16:32:64-S128"
target triple = "x86_64-pc-linux-gnu"

%"class.std::__shared_count" = type { ptr }
%"class.dropbox::oxygen::nn.127" = type { %"class.std::shared_ptr.128" }
%"class.std::shared_ptr.128" = type { %"class.std::__shared_ptr.129" }
%"class.std::__shared_ptr.129" = type { ptr, %"class.std::__shared_count" }

@.str = private unnamed_addr constant [8 x i8] c"unknown\00", align 1

; Function Attrs: mustprogress nounwind uwtable
define linkonce_odr noundef ptr @_ZNKSt19__shared_ptr_accessIN5osgeo4proj5datum22GeodeticReferenceFrameELN9__gnu_cxx12_Lock_policyE2ELb0ELb0EE6_M_getEv(ptr noundef nonnull align 1 dereferenceable(1) %0) #0 comdat align 2 {
  %2 = alloca ptr, align 8
  store ptr %0, ptr %2, align 8, !tbaa !249
  %3 = load ptr, ptr %2, align 8
  %4 = call noundef ptr @_ZNKSt12__shared_ptrIN5osgeo4proj5datum22GeodeticReferenceFrameELN9__gnu_cxx12_Lock_policyE2EE3getEv(ptr noundef nonnull align 8 dereferenceable(16) %3) #25
  ret ptr %4
}

; Function Attrs: mustprogress nounwind uwtable
define linkonce_odr noundef ptr @_ZNKSt12__shared_ptrIN5osgeo4proj5datum22GeodeticReferenceFrameELN9__gnu_cxx12_Lock_policyE2EE3getEv(ptr noundef nonnull align 8 dereferenceable(16) %0) #0 comdat align 2 {
  %2 = alloca ptr, align 8
  store ptr %0, ptr %2, align 8, !tbaa !244
  %3 = load ptr, ptr %2, align 8
  %4 = getelementptr inbounds nuw %"class.std::__shared_ptr.129", ptr %3, i32 0, i32 0
  %5 = load ptr, ptr %4, align 8, !tbaa !246
  ret ptr %5
}

; Function Attrs: mustprogress nounwind uwtable
define linkonce_odr noundef nonnull align 8 dereferenceable(72) ptr @_ZNKSt19__shared_ptr_accessIN5osgeo4proj5datum22GeodeticReferenceFrameELN9__gnu_cxx12_Lock_policyE2ELb0ELb0EEdeEv(ptr noundef nonnull align 1 dereferenceable(1) %0) #0 comdat align 2 {
  %2 = alloca ptr, align 8
  store ptr %0, ptr %2, align 8, !tbaa !249
  %3 = load ptr, ptr %2, align 8
  br label %4

4:                                                ; preds = %1
  br label %5

5:                                                ; preds = %4
  br label %6

6:                                                ; preds = %5
  %7 = call noundef ptr @_ZNKSt19__shared_ptr_accessIN5osgeo4proj5datum22GeodeticReferenceFrameELN9__gnu_cxx12_Lock_policyE2ELb0ELb0EE6_M_getEv(ptr noundef nonnull align 1 dereferenceable(1) %3) #25
  ret ptr %7
}

; Function Attrs: mustprogress nounwind uwtable
define linkonce_odr hidden noundef ptr @_ZNK7dropbox6oxygen2nnISt10shared_ptrIN5osgeo4proj5datum22GeodeticReferenceFrameEEE3getIS7_EEPS6_v(ptr noundef nonnull align 8 dereferenceable(16) %0) #0 comdat align 2 {
  %2 = alloca ptr, align 8
  store ptr %0, ptr %2, align 8, !tbaa !160
  %3 = load ptr, ptr %2, align 8
  %4 = getelementptr inbounds nuw %"class.dropbox::oxygen::nn.127", ptr %3, i32 0, i32 0
  %5 = call noundef ptr @_ZNKSt12__shared_ptrIN5osgeo4proj5datum22GeodeticReferenceFrameELN9__gnu_cxx12_Lock_policyE2EE3getEv(ptr noundef nonnull align 8 dereferenceable(16) %4) #25
  ret ptr %5
}

; Function Attrs: inlinehint mustprogress nounwind uwtable
define linkonce_odr noundef zeroext i1 @_ZStneIcSt11char_traitsIcESaIcEEbRKNSt7__cxx1112basic_stringIT_T0_T1_EEPKS5_(ptr noundef nonnull align 8 dereferenceable(32) %0, ptr noundef %1) #5 comdat {
  %3 = alloca ptr, align 8
  %4 = alloca ptr, align 8
  store ptr %0, ptr %3, align 8, !tbaa !131
  store ptr %1, ptr %4, align 8, !tbaa !156
  %5 = load ptr, ptr %3, align 8, !tbaa !131
  %6 = load ptr, ptr %4, align 8, !tbaa !156
  %7 = call noundef zeroext i1 @_ZSteqIcSt11char_traitsIcESaIcEEbRKNSt7__cxx1112basic_stringIT_T0_T1_EEPKS5_(ptr noundef nonnull align 8 dereferenceable(32) %5, ptr noundef %6)
  %8 = xor i1 %7, true
  ret i1 %8
}

; Function Attrs: inlinehint mustprogress nounwind uwtable
define linkonce_odr noundef zeroext i1 @_ZSteqIcSt11char_traitsIcESaIcEEbRKNSt7__cxx1112basic_stringIT_T0_T1_EEPKS5_(ptr noundef nonnull align 8 dereferenceable(32) %0, ptr noundef %1) #5 comdat {
  %3 = alloca ptr, align 8
  %4 = alloca ptr, align 8
  store ptr %0, ptr %3, align 8, !tbaa !131
  store ptr %1, ptr %4, align 8, !tbaa !156
  %5 = load ptr, ptr %3, align 8, !tbaa !131
  %6 = load ptr, ptr %4, align 8, !tbaa !156
  %7 = call noundef i32 @_ZNKSt7__cxx1112basic_stringIcSt11char_traitsIcESaIcEE7compareEPKc(ptr noundef nonnull align 8 dereferenceable(32) %5, ptr noundef %6) #25
  %8 = icmp eq i32 %7, 0
  ret i1 %8
}

; Function Attrs: mustprogress nounwind uwtable
define linkonce_odr hidden noundef ptr @_ZNK7dropbox6oxygen2nnISt10shared_ptrIN5osgeo4proj5datum22GeodeticReferenceFrameEEEptEv(ptr noundef nonnull align 8 dereferenceable(16) %0) #0 comdat align 2 {
  %2 = alloca ptr, align 8
  store ptr %0, ptr %2, align 8, !tbaa !160
  %3 = load ptr, ptr %2, align 8
  %4 = getelementptr inbounds nuw %"class.dropbox::oxygen::nn.127", ptr %3, i32 0, i32 0
  %5 = call noundef nonnull align 8 dereferenceable(72) ptr @_ZNKSt19__shared_ptr_accessIN5osgeo4proj5datum22GeodeticReferenceFrameELN9__gnu_cxx12_Lock_policyE2ELb0ELb0EEdeEv(ptr noundef nonnull align 1 dereferenceable(1) %4) #25
  ret ptr %5
}

; Function Attrs: mustprogress uwtable
define internal noundef zeroext i1 @_ZN5osgeo4proj9operationL19isSameGeodeticDatumERKN7dropbox6oxygen2nnISt10shared_ptrINS0_5datum22GeodeticReferenceFrameEEEESB_RKS5_INS0_2io15DatabaseContextEE(ptr noundef nonnull align 8 dereferenceable(16) %0, ptr noundef nonnull align 8 dereferenceable(16) %1, ptr noundef nonnull align 8 dereferenceable(16) %2) #2 {
  %4 = alloca i1, align 1
  %5 = alloca ptr, align 8
  %6 = alloca ptr, align 8
  %7 = alloca ptr, align 8
  store ptr %0, ptr %5, align 8, !tbaa !160
  store ptr %1, ptr %6, align 8, !tbaa !160
  store ptr %2, ptr %7, align 8, !tbaa !147
  %8 = load ptr, ptr %5, align 8, !tbaa !160
  %9 = call noundef ptr @_ZNK7dropbox6oxygen2nnISt10shared_ptrIN5osgeo4proj5datum22GeodeticReferenceFrameEEEptEv(ptr noundef nonnull align 8 dereferenceable(16) %8)
  %10 = call noundef nonnull align 8 dereferenceable(32) ptr @_ZNK5osgeo4proj6common16IdentifiedObject7nameStrB5cxx11Ev(ptr noundef nonnull align 8 dereferenceable(40) %9) #10
  %11 = call noundef zeroext i1 @_ZSteqIcSt11char_traitsIcESaIcEEbRKNSt7__cxx1112basic_stringIT_T0_T1_EEPKS5_(ptr noundef nonnull align 8 dereferenceable(32) %10, ptr noundef @.str)
  br i1 %11, label %12, label %18

12:                                               ; preds = %3
  %13 = load ptr, ptr %6, align 8, !tbaa !160
  %14 = call noundef ptr @_ZNK7dropbox6oxygen2nnISt10shared_ptrIN5osgeo4proj5datum22GeodeticReferenceFrameEEEptEv(ptr noundef nonnull align 8 dereferenceable(16) %13)
  %15 = call noundef nonnull align 8 dereferenceable(32) ptr @_ZNK5osgeo4proj6common16IdentifiedObject7nameStrB5cxx11Ev(ptr noundef nonnull align 8 dereferenceable(40) %14) #10
  %16 = call noundef zeroext i1 @_ZStneIcSt11char_traitsIcESaIcEEbRKNSt7__cxx1112basic_stringIT_T0_T1_EEPKS5_(ptr noundef nonnull align 8 dereferenceable(32) %15, ptr noundef @.str)
  br i1 %16, label %17, label %18

17:                                               ; preds = %12
  store i1 false, ptr %4, align 1
  br label %44

18:                                               ; preds = %12, %3
  %19 = load ptr, ptr %6, align 8, !tbaa !160
  %20 = call noundef ptr @_ZNK7dropbox6oxygen2nnISt10shared_ptrIN5osgeo4proj5datum22GeodeticReferenceFrameEEEptEv(ptr noundef nonnull align 8 dereferenceable(16) %19)
  %21 = call noundef nonnull align 8 dereferenceable(32) ptr @_ZNK5osgeo4proj6common16IdentifiedObject7nameStrB5cxx11Ev(ptr noundef nonnull align 8 dereferenceable(40) %20) #10
  %22 = call noundef zeroext i1 @_ZSteqIcSt11char_traitsIcESaIcEEbRKNSt7__cxx1112basic_stringIT_T0_T1_EEPKS5_(ptr noundef nonnull align 8 dereferenceable(32) %21, ptr noundef @.str)
  br i1 %22, label %23, label %29

23:                                               ; preds = %18
  %24 = load ptr, ptr %5, align 8, !tbaa !160
  %25 = call noundef ptr @_ZNK7dropbox6oxygen2nnISt10shared_ptrIN5osgeo4proj5datum22GeodeticReferenceFrameEEEptEv(ptr noundef nonnull align 8 dereferenceable(16) %24)
  %26 = call noundef nonnull align 8 dereferenceable(32) ptr @_ZNK5osgeo4proj6common16IdentifiedObject7nameStrB5cxx11Ev(ptr noundef nonnull align 8 dereferenceable(40) %25) #10
  %27 = call noundef zeroext i1 @_ZStneIcSt11char_traitsIcESaIcEEbRKNSt7__cxx1112basic_stringIT_T0_T1_EEPKS5_(ptr noundef nonnull align 8 dereferenceable(32) %26, ptr noundef @.str)
  br i1 %27, label %28, label %29

28:                                               ; preds = %23
  store i1 false, ptr %4, align 1
  br label %44

29:                                               ; preds = %23, %18
  %30 = load ptr, ptr %5, align 8, !tbaa !160
  %31 = call noundef ptr @_ZNK7dropbox6oxygen2nnISt10shared_ptrIN5osgeo4proj5datum22GeodeticReferenceFrameEEEptEv(ptr noundef nonnull align 8 dereferenceable(16) %30)
  %32 = load ptr, ptr %6, align 8, !tbaa !160
  %33 = call noundef ptr @_ZNK7dropbox6oxygen2nnISt10shared_ptrIN5osgeo4proj5datum22GeodeticReferenceFrameEEE3getIS7_EEPS6_v(ptr noundef nonnull align 8 dereferenceable(16) %32)
  %34 = icmp eq ptr %33, null
  br i1 %34, label %37, label %35

35:                                               ; preds = %29
  %36 = getelementptr inbounds i8, ptr %33, i64 16
  br label %37

37:                                               ; preds = %35, %29
  %38 = phi ptr [ %36, %35 ], [ null, %29 ]
  %39 = load ptr, ptr %7, align 8, !tbaa !147
  %40 = load ptr, ptr %31, align 8, !tbaa !8
  %41 = getelementptr inbounds ptr, ptr %40, i64 2
  %42 = load ptr, ptr %41, align 8
  %43 = call noundef zeroext i1 %42(ptr noundef nonnull align 8 dereferenceable(72) %31, ptr noundef %38, i32 noundef 1, ptr noundef nonnull align 8 dereferenceable(16) %39)
  store i1 %43, ptr %4, align 1
  br label %44

44:                                               ; preds = %37, %28, %17
  %45 = load i1, ptr %4, align 1
  ret i1 %45
}