; Function Attrs: mustprogress uwtable
define internal fastcc noundef zeroext i1 @_ZN5osgeo4proj9operationL19isSameGeodeticDatumERKN7dropbox6oxygen2nnISt10shared_ptrINS0_5datum22GeodeticReferenceFrameEEEESB_RKS5_INS0_2io15DatabaseContextEE(ptr noundef nonnull readonly align 8 captures(none) dereferenceable(16) %0, ptr noundef nonnull readonly align 8 captures(none) dereferenceable(16) %1, ptr noundef nonnull align 8 dereferenceable(16) %2) unnamed_addr #2 {
  %4 = load ptr, ptr %0, align 8, !tbaa !173
  %5 = tail call noundef nonnull align 8 dereferenceable(32) ptr @_ZNK5osgeo4proj6common16IdentifiedObject7nameStrB5cxx11Ev(ptr noundef nonnull align 8 dereferenceable(40) %4) #37
  %6 = tail call noundef i32 @_ZNKSt7__cxx1112basic_stringIcSt11char_traitsIcESaIcEE7compareEPKc(ptr noundef nonnull align 8 dereferenceable(32) %5, ptr noundef nonnull @.str) #32
  %7 = icmp eq i32 %6, 0
  br i1 %7, label %8, label %12

8:                                                ; preds = %3
  %9 = load ptr, ptr %1, align 8, !tbaa !173
  %10 = tail call noundef nonnull align 8 dereferenceable(32) ptr @_ZNK5osgeo4proj6common16IdentifiedObject7nameStrB5cxx11Ev(ptr noundef nonnull align 8 dereferenceable(40) %9) #37
  %11 = tail call noundef i32 @_ZNKSt7__cxx1112basic_stringIcSt11char_traitsIcESaIcEE7compareEPKc(ptr noundef nonnull align 8 dereferenceable(32) %10, ptr noundef nonnull @.str) #32
  %.not = icmp eq i32 %11, 0
  br i1 %.not, label %12, label %30

12:                                               ; preds = %8, %3
  %13 = load ptr, ptr %1, align 8, !tbaa !173
  %14 = tail call noundef nonnull align 8 dereferenceable(32) ptr @_ZNK5osgeo4proj6common16IdentifiedObject7nameStrB5cxx11Ev(ptr noundef nonnull align 8 dereferenceable(40) %13) #37
  %15 = tail call noundef i32 @_ZNKSt7__cxx1112basic_stringIcSt11char_traitsIcESaIcEE7compareEPKc(ptr noundef nonnull align 8 dereferenceable(32) %14, ptr noundef nonnull @.str) #32
  %16 = icmp eq i32 %15, 0
  br i1 %16, label %17, label %21

17:                                               ; preds = %12
  %18 = load ptr, ptr %0, align 8, !tbaa !173
  %19 = tail call noundef nonnull align 8 dereferenceable(32) ptr @_ZNK5osgeo4proj6common16IdentifiedObject7nameStrB5cxx11Ev(ptr noundef nonnull align 8 dereferenceable(40) %18) #37
  %20 = tail call noundef i32 @_ZNKSt7__cxx1112basic_stringIcSt11char_traitsIcESaIcEE7compareEPKc(ptr noundef nonnull align 8 dereferenceable(32) %19, ptr noundef nonnull @.str) #32
  %.not8 = icmp eq i32 %20, 0
  br i1 %.not8, label %21, label %30

21:                                               ; preds = %17, %12
  %22 = load ptr, ptr %0, align 8, !tbaa !173
  %23 = load ptr, ptr %1, align 8, !tbaa !173
  %24 = icmp eq ptr %23, null
  %25 = getelementptr inbounds nuw i8, ptr %23, i64 16
  %spec.select = select i1 %24, ptr null, ptr %25
  %26 = load ptr, ptr %22, align 8, !tbaa !3
  %27 = getelementptr inbounds nuw i8, ptr %26, i64 16
  %28 = load ptr, ptr %27, align 8
  %29 = tail call noundef zeroext i1 %28(ptr noundef nonnull align 8 dereferenceable(72) %22, ptr noundef %spec.select, i32 noundef 1, ptr noundef nonnull align 8 dereferenceable(16) %2)
  br label %30

30:                                               ; preds = %17, %8, %21
  %.0 = phi i1 [ %29, %21 ], [ false, %8 ], [ false, %17 ]
  ret i1 %.0
}